target datalayout = "e-m:e-p270:32:32-p271:32:32-p272:64:64-i64:64-i128:128-f80:128-n8:16:32:64-S128"
target triple = "x86_64-pc-linux-gnu"

%struct.Vec_Int_t_ = type { i32, i32, ptr }

@.str.14 = private unnamed_addr constant [2 x i8] c"\0A\00", align 1
@.str.18 = private unnamed_addr constant [51 x i8] c"Solution:  In = %d  Div = %d  Node = %d  Out = %d\0A\00", align 1
@.str.19 = private unnamed_addr constant [9 x i8] c"x%-2d = \00", align 1
@.str.20 = private unnamed_addr constant [6 x i8] c"  %c \00", align 1
@.str.29 = private unnamed_addr constant [3 x i8] c"%d\00", align 1
@.str.30 = private unnamed_addr constant [5 x i8] c"%c%c\00", align 1

; Function Attrs: inlinehint nounwind uwtable
define internal i32 @Abc_LitIsCompl(i32 noundef %0) #2 {
  %2 = alloca i32, align 4
  store i32 %0, ptr %2, align 4, !tbaa !19
  %3 = load i32, ptr %2, align 4, !tbaa !19
  %4 = and i32 %3, 1
  ret i32 %4
}

; Function Attrs: inlinehint nounwind uwtable
define internal i32 @Abc_Lit2Var(i32 noundef %0) #2 {
  %2 = alloca i32, align 4
  store i32 %0, ptr %2, align 4, !tbaa !19
  %3 = load i32, ptr %2, align 4, !tbaa !19
  %4 = ashr i32 %3, 1
  ret i32 %4
}

; Function Attrs: inlinehint nounwind uwtable
define internal i32 @Res6_LitChar(i32 noundef %0, i32 noundef %1) #2 {
  %3 = alloca i32, align 4
  %4 = alloca i32, align 4
  store i32 %0, ptr %3, align 4, !tbaa !19
  store i32 %1, ptr %4, align 4, !tbaa !19
  %5 = load i32, ptr %3, align 4, !tbaa !19
  %6 = call i32 @Abc_Lit2Var(i32 noundef %5)
  %7 = load i32, ptr %4, align 4, !tbaa !19
  %8 = icmp slt i32 %6, %7
  br i1 %8, label %9, label %20

9:                                                ; preds = %2
  %10 = load i32, ptr %4, align 4, !tbaa !19
  %11 = icmp slt i32 %10, 28
  br i1 %11, label %12, label %17

12:                                               ; preds = %9
  %13 = load i32, ptr %3, align 4, !tbaa !19
  %14 = call i32 @Abc_Lit2Var(i32 noundef %13)
  %15 = add nsw i32 97, %14
  %16 = sub nsw i32 %15, 1
  br label %18

17:                                               ; preds = %9
  br label %18

18:                                               ; preds = %17, %12
  %19 = phi i32 [ %16, %12 ], [ 100, %17 ]
  br label %21

20:                                               ; preds = %2
  br label %21

21:                                               ; preds = %20, %18
  %22 = phi i32 [ %19, %18 ], [ 120, %20 ]
  ret i32 %22
}

; Function Attrs: inlinehint nounwind uwtable
define internal i32 @Res6_LitSign(i32 noundef %0) #2 {
  %2 = alloca i32, align 4
  store i32 %0, ptr %2, align 4, !tbaa !19
  %3 = load i32, ptr %2, align 4, !tbaa !19
  %4 = call i32 @Abc_LitIsCompl(i32 noundef %3)
  %5 = icmp ne i32 %4, 0
  %6 = select i1 %5, i32 126, i32 32
  ret i32 %6
}

; Function Attrs: inlinehint nounwind uwtable
define internal void @Vec_IntFree(ptr noundef %0) #2 {
  %2 = alloca ptr, align 8
  store ptr %0, ptr %2, align 8, !tbaa !54
  %3 = load ptr, ptr %2, align 8, !tbaa !54
  %4 = getelementptr inbounds nuw %struct.Vec_Int_t_, ptr %3, i32 0, i32 2
  %5 = load ptr, ptr %4, align 8, !tbaa !56
  %6 = icmp ne ptr %5, null
  br i1 %6, label %7, label %13

7:                                                ; preds = %1
  %8 = load ptr, ptr %2, align 8, !tbaa !54
  %9 = getelementptr inbounds nuw %struct.Vec_Int_t_, ptr %8, i32 0, i32 2
  %10 = load ptr, ptr %9, align 8, !tbaa !56
  call void @free(ptr noundef %10) #11
  %11 = load ptr, ptr %2, align 8, !tbaa !54
  %12 = getelementptr inbounds nuw %struct.Vec_Int_t_, ptr %11, i32 0, i32 2
  store ptr null, ptr %12, align 8, !tbaa !56
  br label %14

13:                                               ; preds = %1
  br label %14

14:                                               ; preds = %13, %7
  %15 = load ptr, ptr %2, align 8, !tbaa !54
  %16 = icmp ne ptr %15, null
  br i1 %16, label %17, label %19

17:                                               ; preds = %14
  %18 = load ptr, ptr %2, align 8, !tbaa !54
  call void @free(ptr noundef %18) #11
  store ptr null, ptr %2, align 8, !tbaa !54
  br label %20

19:                                               ; preds = %14
  br label %20

20:                                               ; preds = %19, %17
  ret void
}

; Function Attrs: inlinehint nounwind uwtable
define internal void @Res6_LitPrint(i32 noundef %0, i32 noundef %1) #2 {
  %3 = alloca i32, align 4
  %4 = alloca i32, align 4
  store i32 %0, ptr %3, align 4, !tbaa !19
  store i32 %1, ptr %4, align 4, !tbaa !19
  %5 = load i32, ptr %3, align 4, !tbaa !19
  %6 = icmp slt i32 %5, 2
  br i1 %6, label %7, label %10

7:                                                ; preds = %2
  %8 = load i32, ptr %3, align 4, !tbaa !19
  %9 = call i32 (ptr, ...) @printf(ptr noundef @.str.29, i32 noundef %8)
  br label %29

10:                                               ; preds = %2
  %11 = load i32, ptr %3, align 4, !tbaa !19
  %12 = call i32 @Res6_LitSign(i32 noundef %11)
  %13 = load i32, ptr %3, align 4, !tbaa !19
  %14 = load i32, ptr %4, align 4, !tbaa !19
  %15 = call i32 @Res6_LitChar(i32 noundef %13, i32 noundef %14)
  %16 = call i32 (ptr, ...) @printf(ptr noundef @.str.30, i32 noundef %12, i32 noundef %15)
  %17 = load i32, ptr %3, align 4, !tbaa !19
  %18 = call i32 @Abc_Lit2Var(i32 noundef %17)
  %19 = load i32, ptr %4, align 4, !tbaa !19
  %20 = icmp sge i32 %18, %19
  br i1 %20, label %24, label %21

21:                                               ; preds = %10
  %22 = load i32, ptr %4, align 4, !tbaa !19
  %23 = icmp sge i32 %22, 28
  br i1 %23, label %24, label %28

24:                                               ; preds = %21, %10
  %25 = load i32, ptr %3, align 4, !tbaa !19
  %26 = call i32 @Abc_Lit2Var(i32 noundef %25)
  %27 = call i32 (ptr, ...) @printf(ptr noundef @.str.29, i32 noundef %26)
  br label %28

28:                                               ; preds = %24, %21
  br label %29

29:                                               ; preds = %28, %7
  ret void
}

; Function Attrs: inlinehint nounwind uwtable
define internal ptr @Vec_IntEntryP(ptr noundef %0, i32 noundef %1) #2 {
  %3 = alloca ptr, align 8
  %4 = alloca i32, align 4
  store ptr %0, ptr %3, align 8, !tbaa !54
  store i32 %1, ptr %4, align 4, !tbaa !19
  %5 = load ptr, ptr %3, align 8, !tbaa !54
  %6 = getelementptr inbounds nuw %struct.Vec_Int_t_, ptr %5, i32 0, i32 2
  %7 = load ptr, ptr %6, align 8, !tbaa !56
  %8 = load i32, ptr %4, align 4, !tbaa !19
  %9 = sext i32 %8 to i64
  %10 = getelementptr inbounds i32, ptr %7, i64 %9
  ret ptr %10
}

; Function Attrs: nounwind uwtable
define i32 @Res6_FindSupportSize(ptr noundef %0, i32 noundef %1) #0 {
  %3 = alloca ptr, align 8
  %4 = alloca i32, align 4
  %5 = alloca ptr, align 8
  %6 = alloca i32, align 4
  store ptr %0, ptr %3, align 8, !tbaa !54
  store i32 %1, ptr %4, align 4, !tbaa !19
  call void @llvm.lifetime.start.p0(i64 8, ptr %5) #11
  %7 = load ptr, ptr %3, align 8, !tbaa !54
  %8 = load i32, ptr %4, align 4, !tbaa !19
  %9 = call ptr @Res6_FindSupport(ptr noundef %7, i32 noundef %8)
  store ptr %9, ptr %5, align 8, !tbaa !54
  call void @llvm.lifetime.start.p0(i64 4, ptr %6) #11
  %10 = load ptr, ptr %5, align 8, !tbaa !54
  %11 = call i32 @Vec_IntSize(ptr noundef %10)
  store i32 %11, ptr %6, align 4, !tbaa !19
  %12 = load ptr, ptr %5, align 8, !tbaa !54
  call void @Vec_IntFree(ptr noundef %12)
  %13 = load i32, ptr %6, align 4, !tbaa !19
  call void @llvm.lifetime.end.p0(i64 4, ptr %6) #11
  call void @llvm.lifetime.end.p0(i64 8, ptr %5) #11
  ret i32 %13
}

; Function Attrs: inlinehint nounwind uwtable
define internal i32 @Vec_IntSize(ptr noundef %0) #2 {
  %2 = alloca ptr, align 8
  store ptr %0, ptr %2, align 8, !tbaa !54
  %3 = load ptr, ptr %2, align 8, !tbaa !54
  %4 = getelementptr inbounds nuw %struct.Vec_Int_t_, ptr %3, i32 0, i32 1
  %5 = load i32, ptr %4, align 4, !tbaa !55
  ret i32 %5
}

; Function Attrs: nounwind uwtable
define void @Res6_PrintSolution(ptr noundef %0, i32 noundef %1) #0 {
  %3 = alloca ptr, align 8
  %4 = alloca i32, align 4
  %5 = alloca i32, align 4
  %6 = alloca i32, align 4
  %7 = alloca ptr, align 8
  store ptr %0, ptr %3, align 8, !tbaa !54
  store i32 %1, ptr %4, align 4, !tbaa !19
  call void @llvm.lifetime.start.p0(i64 4, ptr %5) #11
  call void @llvm.lifetime.start.p0(i64 4, ptr %6) #11
  %8 = load ptr, ptr %3, align 8, !tbaa !54
  %9 = call i32 @Vec_IntSize(ptr noundef %8)
  %10 = sdiv i32 %9, 2
  %11 = sub nsw i32 %10, 1
  store i32 %11, ptr %6, align 4, !tbaa !19
  %12 = load ptr, ptr %3, align 8, !tbaa !54
  %13 = load i32, ptr %4, align 4, !tbaa !19
  %14 = call i32 @Res6_FindSupportSize(ptr noundef %12, i32 noundef %13)
  %15 = load i32, ptr %4, align 4, !tbaa !19
  %16 = sub nsw i32 %15, 1
  %17 = load i32, ptr %6, align 4, !tbaa !19
  %18 = call i32 (ptr, ...) @printf(ptr noundef @.str.18, i32 noundef %14, i32 noundef %16, i32 noundef %17, i32 noundef 1)
  store i32 0, ptr %5, align 4, !tbaa !19
  br label %19

19:                                               ; preds = %59, %2
  %20 = load i32, ptr %5, align 4, !tbaa !19
  %21 = load i32, ptr %6, align 4, !tbaa !19
  %22 = icmp sle i32 %20, %21
  br i1 %22, label %23, label %62

23:                                               ; preds = %19
  call void @llvm.lifetime.start.p0(i64 8, ptr %7) #11
  %24 = load ptr, ptr %3, align 8, !tbaa !54
  %25 = load i32, ptr %5, align 4, !tbaa !19
  %26 = mul nsw i32 2, %25
  %27 = call ptr @Vec_IntEntryP(ptr noundef %24, i32 noundef %26)
  store ptr %27, ptr %7, align 8, !tbaa !78
  %28 = load i32, ptr %4, align 4, !tbaa !19
  %29 = load i32, ptr %5, align 4, !tbaa !19
  %30 = add nsw i32 %28, %29
  %31 = call i32 (ptr, ...) @printf(ptr noundef @.str.19, i32 noundef %30)
  %32 = load ptr, ptr %7, align 8, !tbaa !78
  %33 = getelementptr inbounds i32, ptr %32, i64 0
  %34 = load i32, ptr %33, align 4, !tbaa !19
  %35 = load i32, ptr %4, align 4, !tbaa !19
  call void @Res6_LitPrint(i32 noundef %34, i32 noundef %35)
  %36 = load ptr, ptr %7, align 8, !tbaa !78
  %37 = getelementptr inbounds i32, ptr %36, i64 0
  %38 = load i32, ptr %37, align 4, !tbaa !19
  %39 = load ptr, ptr %7, align 8, !tbaa !78
  %40 = getelementptr inbounds i32, ptr %39, i64 1
  %41 = load i32, ptr %40, align 4, !tbaa !19
  %42 = icmp ne i32 %38, %41
  br i1 %42, label %43, label %57

43:                                               ; preds = %23
  %44 = load ptr, ptr %7, align 8, !tbaa !78
  %45 = getelementptr inbounds i32, ptr %44, i64 0
  %46 = load i32, ptr %45, align 4, !tbaa !19
  %47 = load ptr, ptr %7, align 8, !tbaa !78
  %48 = getelementptr inbounds i32, ptr %47, i64 1
  %49 = load i32, ptr %48, align 4, !tbaa !19
  %50 = icmp slt i32 %46, %49
  %51 = select i1 %50, i32 38, i32 94
  %52 = call i32 (ptr, ...) @printf(ptr noundef @.str.20, i32 noundef %51)
  %53 = load ptr, ptr %7, align 8, !tbaa !78
  %54 = getelementptr inbounds i32, ptr %53, i64 1
  %55 = load i32, ptr %54, align 4, !tbaa !19
  %56 = load i32, ptr %4, align 4, !tbaa !19
  call void @Res6_LitPrint(i32 noundef %55, i32 noundef %56)
  br label %57

57:                                               ; preds = %43, %23
  %58 = call i32 (ptr, ...) @printf(ptr noundef @.str.14)
  call void @llvm.lifetime.end.p0(i64 8, ptr %7) #11
  br label %59

59:                                               ; preds = %57
  %60 = load i32, ptr %5, align 4, !tbaa !19
  %61 = add nsw i32 %60, 1
  store i32 %61, ptr %5, align 4, !tbaa !19
  br label %19, !llvm.loop !79

62:                                               ; preds = %19
  call void @llvm.lifetime.end.p0(i64 4, ptr %6) #11
  call void @llvm.lifetime.end.p0(i64 4, ptr %5) #11
  ret void
}