; Function Attrs: nounwind uwtable
define void @Res6_PrintSolution(ptr noundef readonly captures(none) %0, i32 noundef %1) local_unnamed_addr #0 {
  %3 = getelementptr i8, ptr %0, i64 4
  %.val = load i32, ptr %3, align 4, !tbaa !25
  %4 = sdiv i32 %.val, 2
  %5 = add nsw i32 %4, -1
  %6 = tail call ptr @Res6_FindSupport(ptr noundef readonly %0, i32 noundef %1)
  %7 = getelementptr i8, ptr %6, i64 4
  %.val.i = load i32, ptr %7, align 4, !tbaa !25
  %8 = getelementptr inbounds nuw i8, ptr %6, i64 8
  %9 = load ptr, ptr %8, align 8, !tbaa !29
  %.not.i.i = icmp eq ptr %9, null
  br i1 %.not.i.i, label %Res6_FindSupportSize.exit, label %10

10:                                               ; preds = %2
  tail call void @free(ptr noundef nonnull %9) #21
  br label %Res6_FindSupportSize.exit

Res6_FindSupportSize.exit:                        ; preds = %2, %10
  tail call void @free(ptr noundef nonnull %6) #21
  %11 = add nsw i32 %1, -1
  %12 = tail call i32 (ptr, ...) @printf(ptr noundef nonnull dereferenceable(1) @.str.18, i32 noundef %.val.i, i32 noundef %11, i32 noundef %5, i32 noundef 1)
  %.not.not29 = icmp sgt i32 %.val, 1
  br i1 %.not.not29, label %.lr.ph, label %._crit_edge

.lr.ph:                                           ; preds = %Res6_FindSupportSize.exit
  %13 = getelementptr i8, ptr %0, i64 8
  %14 = icmp samesign ult i32 %1, 28
  %15 = icmp sgt i32 %1, 27
  %wide.trip.count = zext nneg i32 %4 to i64
  br label %16

16:                                               ; preds = %.lr.ph, %Res6_LitPrint.exit28
  %indvars.iv = phi i64 [ 0, %.lr.ph ], [ %indvars.iv.next, %Res6_LitPrint.exit28 ]
  %.val21 = load ptr, ptr %13, align 8, !tbaa !29
  %.idx = shl nuw nsw i64 %indvars.iv, 3
  %17 = getelementptr inbounds nuw i8, ptr %.val21, i64 %.idx
  %18 = trunc i64 %indvars.iv to i32
  %19 = add i32 %1, %18
  %20 = tail call i32 (ptr, ...) @printf(ptr noundef nonnull dereferenceable(1) @.str.19, i32 noundef %19)
  %21 = load i32, ptr %17, align 4, !tbaa !3
  %22 = icmp slt i32 %21, 2
  br i1 %22, label %.sink.split.i, label %23

23:                                               ; preds = %16
  %24 = and i32 %21, 1
  %.not.i.i22 = icmp eq i32 %24, 0
  %25 = select i1 %.not.i.i22, i32 32, i32 126
  %26 = lshr i32 %21, 1
  %27 = icmp slt i32 %26, %1
  %28 = add nuw nsw i32 %26, 96
  %spec.select.i.i = select i1 %14, i32 %28, i32 100
  %29 = select i1 %27, i32 %spec.select.i.i, i32 120
  %30 = tail call i32 (ptr, ...) @printf(ptr noundef nonnull dereferenceable(1) @.str.30, i32 noundef %25, i32 noundef %29)
  %31 = icmp sge i32 %26, %1
  %or.cond.i = or i1 %15, %31
  br i1 %or.cond.i, label %.sink.split.i, label %Res6_LitPrint.exit

.sink.split.i:                                    ; preds = %23, %16
  %.sink.i = phi i32 [ %21, %16 ], [ %26, %23 ]
  %32 = tail call i32 (ptr, ...) @printf(ptr noundef nonnull dereferenceable(1) @.str.29, i32 noundef %.sink.i)
  br label %Res6_LitPrint.exit

Res6_LitPrint.exit:                               ; preds = %23, %.sink.split.i
  %33 = load i32, ptr %17, align 4, !tbaa !3
  %34 = getelementptr inbounds nuw i8, ptr %17, i64 4
  %35 = load i32, ptr %34, align 4, !tbaa !3
  %.not = icmp eq i32 %33, %35
  br i1 %.not, label %Res6_LitPrint.exit28, label %36

36:                                               ; preds = %Res6_LitPrint.exit
  %37 = icmp slt i32 %33, %35
  %38 = select i1 %37, i32 38, i32 94
  %39 = tail call i32 (ptr, ...) @printf(ptr noundef nonnull dereferenceable(1) @.str.20, i32 noundef %38)
  %40 = load i32, ptr %34, align 4, !tbaa !3
  %41 = icmp slt i32 %40, 2
  br i1 %41, label %.sink.split.i26, label %42

42:                                               ; preds = %36
  %43 = and i32 %40, 1
  %.not.i.i23 = icmp eq i32 %43, 0
  %44 = select i1 %.not.i.i23, i32 32, i32 126
  %45 = lshr i32 %40, 1
  %46 = icmp slt i32 %45, %1
  %47 = add nuw nsw i32 %45, 96
  %spec.select.i.i24 = select i1 %14, i32 %47, i32 100
  %48 = select i1 %46, i32 %spec.select.i.i24, i32 120
  %49 = tail call i32 (ptr, ...) @printf(ptr noundef nonnull dereferenceable(1) @.str.30, i32 noundef %44, i32 noundef %48)
  %50 = icmp sge i32 %45, %1
  %or.cond.i25 = or i1 %15, %50
  br i1 %or.cond.i25, label %.sink.split.i26, label %Res6_LitPrint.exit28

.sink.split.i26:                                  ; preds = %42, %36
  %.sink.i27 = phi i32 [ %40, %36 ], [ %45, %42 ]
  %51 = tail call i32 (ptr, ...) @printf(ptr noundef nonnull dereferenceable(1) @.str.29, i32 noundef %.sink.i27)
  br label %Res6_LitPrint.exit28

Res6_LitPrint.exit28:                             ; preds = %.sink.split.i26, %42, %Res6_LitPrint.exit
  %putchar = tail call i32 @putchar(i32 10)
  %indvars.iv.next = add nuw nsw i64 %indvars.iv, 1
  %exitcond.not = icmp eq i64 %indvars.iv.next, %wide.trip.count
  br i1 %exitcond.not, label %._crit_edge, label %16, !llvm.loop !75

._crit_edge:                                      ; preds = %Res6_LitPrint.exit28, %Res6_FindSupportSize.exit
  ret void
}